; Function Attrs: mustprogress nofree norecurse nosync nounwind willreturn memory(read, inaccessiblemem: none) uwtable
define hidden noundef zeroext i1 @_ZN5zxing9BitMatrix18getRowFirstIsWhiteEi(ptr nocapture noundef nonnull readonly align 8 dereferenceable(346) %0, i32 noundef %1) local_unnamed_addr #3 align 2 {
  %3 = getelementptr inbounds i8, ptr %0, i64 12
  %4 = load i32, ptr %3, align 4
  %5 = mul nsw i32 %4, %1
  %6 = getelementptr inbounds i8, ptr %0, i64 312
  %7 = load ptr, ptr %6, align 8
  %8 = getelementptr inbounds i8, ptr %7, i64 16
  %9 = sext i32 %5 to i64
  %10 = load ptr, ptr %8, align 8
  %11 = getelementptr inbounds i8, ptr %10, i64 %9
  %12 = load i8, ptr %11, align 1
  %.not = icmp eq i8 %12, 0
  ret i1 %.not
}